target datalayout = "e-m:e-p270:32:32-p271:32:32-p272:64:64-i64:64-i128:128-f80:128-n8:16:32:64-S128"
target triple = "x86_64-pc-linux-gnu"

%struct.RangeBound = type { i64, i8, i8, i8 }
%struct.TypeCacheEntry = type { i32, i32, i16, i8, i8, i8, i8, i32, i32, i32, i32, i32, i32, i32, i32, i32, i32, i32, i32, i32, i32, %struct.FmgrInfo, %struct.FmgrInfo, %struct.FmgrInfo, %struct.FmgrInfo, ptr, i64, ptr, i32, i32, %struct.FmgrInfo, %struct.FmgrInfo, %struct.FmgrInfo, ptr, i32, i32, ptr, i32, ptr, ptr }
%struct.FmgrInfo = type { ptr, i32, i16, i8, i8, i8, ptr, ptr, ptr }
%union.anon.2 = type { i64 }

; Function Attrs: inlinehint nounwind uwtable
define internal i64 @DatumGetInt64(i64 noundef %0) #2 {
  %2 = alloca i64, align 8
  store i64 %0, ptr %2, align 8
  %3 = load i64, ptr %2, align 8
  ret i64 %3
}

; Function Attrs: inlinehint nounwind uwtable
define internal double @DatumGetFloat8(i64 noundef %0) #2 {
  %2 = alloca i64, align 8
  %3 = alloca %union.anon.2, align 8
  store i64 %0, ptr %2, align 8
  call void @llvm.lifetime.start.p0(i64 8, ptr %3) #7
  %4 = load i64, ptr %2, align 8
  %5 = call i64 @DatumGetInt64(i64 noundef %4)
  store i64 %5, ptr %3, align 8
  %6 = load double, ptr %3, align 8
  call void @llvm.lifetime.end.p0(i64 8, ptr %3) #7
  ret double %6
}

; Function Attrs: nounwind uwtable
define internal double @get_position(ptr noundef %0, ptr noundef %1, ptr noundef %2, ptr noundef %3) #0 {
  %5 = alloca double, align 8
  %6 = alloca ptr, align 8
  %7 = alloca ptr, align 8
  %8 = alloca ptr, align 8
  %9 = alloca ptr, align 8
  %10 = alloca i8, align 1
  %11 = alloca double, align 8
  %12 = alloca double, align 8
  %13 = alloca i32, align 4
  store ptr %0, ptr %6, align 8
  store ptr %1, ptr %7, align 8
  store ptr %2, ptr %8, align 8
  store ptr %3, ptr %9, align 8
  call void @llvm.lifetime.start.p0(i64 1, ptr %10) #7
  %14 = load ptr, ptr %6, align 8
  %15 = getelementptr inbounds nuw %struct.TypeCacheEntry, ptr %14, i32 0, i32 32
  %16 = getelementptr inbounds nuw %struct.FmgrInfo, ptr %15, i32 0, i32 1
  %17 = load i32, ptr %16, align 8
  %18 = icmp ne i32 %17, 0
  %19 = zext i1 %18 to i8
  store i8 %19, ptr %10, align 1
  call void @llvm.lifetime.start.p0(i64 8, ptr %11) #7
  %20 = load ptr, ptr %8, align 8
  %21 = getelementptr inbounds nuw %struct.RangeBound, ptr %20, i32 0, i32 1
  %22 = load i8, ptr %21, align 8, !range !4, !noundef !5
  %23 = trunc i8 %22 to i1
  br i1 %23, label %95, label %24

24:                                               ; preds = %4
  %25 = load ptr, ptr %9, align 8
  %26 = getelementptr inbounds nuw %struct.RangeBound, ptr %25, i32 0, i32 1
  %27 = load i8, ptr %26, align 8, !range !4, !noundef !5
  %28 = trunc i8 %27 to i1
  br i1 %28, label %95, label %29

29:                                               ; preds = %24
  call void @llvm.lifetime.start.p0(i64 8, ptr %12) #7
  %30 = load ptr, ptr %7, align 8
  %31 = getelementptr inbounds nuw %struct.RangeBound, ptr %30, i32 0, i32 1
  %32 = load i8, ptr %31, align 8, !range !4, !noundef !5
  %33 = trunc i8 %32 to i1
  br i1 %33, label %34, label %35

34:                                               ; preds = %29
  store double 5.000000e-01, ptr %5, align 8
  store i32 1, ptr %13, align 4
  br label %94

35:                                               ; preds = %29
  %36 = load i8, ptr %10, align 1, !range !4, !noundef !5
  %37 = trunc i8 %36 to i1
  br i1 %37, label %39, label %38

38:                                               ; preds = %35
  store double 5.000000e-01, ptr %5, align 8
  store i32 1, ptr %13, align 4
  br label %94

39:                                               ; preds = %35
  %40 = load ptr, ptr %6, align 8
  %41 = getelementptr inbounds nuw %struct.TypeCacheEntry, ptr %40, i32 0, i32 32
  %42 = load ptr, ptr %6, align 8
  %43 = getelementptr inbounds nuw %struct.TypeCacheEntry, ptr %42, i32 0, i32 29
  %44 = load i32, ptr %43, align 4
  %45 = load ptr, ptr %9, align 8
  %46 = getelementptr inbounds nuw %struct.RangeBound, ptr %45, i32 0, i32 0
  %47 = load i64, ptr %46, align 8
  %48 = load ptr, ptr %8, align 8
  %49 = getelementptr inbounds nuw %struct.RangeBound, ptr %48, i32 0, i32 0
  %50 = load i64, ptr %49, align 8
  %51 = call i64 @FunctionCall2Coll(ptr noundef %41, i32 noundef %44, i64 noundef %47, i64 noundef %50)
  %52 = call double @DatumGetFloat8(i64 noundef %51)
  store double %52, ptr %12, align 8
  %53 = load double, ptr %12, align 8
  %54 = call i1 @llvm.is.fpclass.f64(double %53, i32 3)
  br i1 %54, label %58, label %55

55:                                               ; preds = %39
  %56 = load double, ptr %12, align 8
  %57 = fcmp ole double %56, 0.000000e+00
  br i1 %57, label %58, label %59

58:                                               ; preds = %55, %39
  store double 5.000000e-01, ptr %5, align 8
  store i32 1, ptr %13, align 4
  br label %94

59:                                               ; preds = %55
  %60 = load ptr, ptr %6, align 8
  %61 = getelementptr inbounds nuw %struct.TypeCacheEntry, ptr %60, i32 0, i32 32
  %62 = load ptr, ptr %6, align 8
  %63 = getelementptr inbounds nuw %struct.TypeCacheEntry, ptr %62, i32 0, i32 29
  %64 = load i32, ptr %63, align 4
  %65 = load ptr, ptr %7, align 8
  %66 = getelementptr inbounds nuw %struct.RangeBound, ptr %65, i32 0, i32 0
  %67 = load i64, ptr %66, align 8
  %68 = load ptr, ptr %8, align 8
  %69 = getelementptr inbounds nuw %struct.RangeBound, ptr %68, i32 0, i32 0
  %70 = load i64, ptr %69, align 8
  %71 = call i64 @FunctionCall2Coll(ptr noundef %61, i32 noundef %64, i64 noundef %67, i64 noundef %70)
  %72 = call double @DatumGetFloat8(i64 noundef %71)
  %73 = load double, ptr %12, align 8
  %74 = fdiv double %72, %73
  store double %74, ptr %11, align 8
  %75 = load double, ptr %11, align 8
  %76 = call i1 @llvm.is.fpclass.f64(double %75, i32 3)
  br i1 %76, label %77, label %78

77:                                               ; preds = %59
  store double 5.000000e-01, ptr %5, align 8
  store i32 1, ptr %13, align 4
  br label %94

78:                                               ; preds = %59
  %79 = load double, ptr %11, align 8
  %80 = fcmp ogt double %79, 0.000000e+00
  br i1 %80, label %81, label %83

81:                                               ; preds = %78
  %82 = load double, ptr %11, align 8
  br label %84

83:                                               ; preds = %78
  br label %84

84:                                               ; preds = %83, %81
  %85 = phi double [ %82, %81 ], [ 0.000000e+00, %83 ]
  store double %85, ptr %11, align 8
  %86 = load double, ptr %11, align 8
  %87 = fcmp olt double %86, 1.000000e+00
  br i1 %87, label %88, label %90

88:                                               ; preds = %84
  %89 = load double, ptr %11, align 8
  br label %91

90:                                               ; preds = %84
  br label %91

91:                                               ; preds = %90, %88
  %92 = phi double [ %89, %88 ], [ 1.000000e+00, %90 ]
  store double %92, ptr %11, align 8
  %93 = load double, ptr %11, align 8
  store double %93, ptr %5, align 8
  store i32 1, ptr %13, align 4
  br label %94

94:                                               ; preds = %91, %77, %58, %38, %34
  call void @llvm.lifetime.end.p0(i64 8, ptr %12) #7
  br label %143

95:                                               ; preds = %24, %4
  %96 = load ptr, ptr %8, align 8
  %97 = getelementptr inbounds nuw %struct.RangeBound, ptr %96, i32 0, i32 1
  %98 = load i8, ptr %97, align 8, !range !4, !noundef !5
  %99 = trunc i8 %98 to i1
  br i1 %99, label %100, label %118

100:                                              ; preds = %95
  %101 = load ptr, ptr %9, align 8
  %102 = getelementptr inbounds nuw %struct.RangeBound, ptr %101, i32 0, i32 1
  %103 = load i8, ptr %102, align 8, !range !4, !noundef !5
  %104 = trunc i8 %103 to i1
  br i1 %104, label %118, label %105

105:                                              ; preds = %100
  %106 = load ptr, ptr %7, align 8
  %107 = getelementptr inbounds nuw %struct.RangeBound, ptr %106, i32 0, i32 1
  %108 = load i8, ptr %107, align 8, !range !4, !noundef !5
  %109 = trunc i8 %108 to i1
  br i1 %109, label %110, label %115

110:                                              ; preds = %105
  %111 = load ptr, ptr %7, align 8
  %112 = getelementptr inbounds nuw %struct.RangeBound, ptr %111, i32 0, i32 3
  %113 = load i8, ptr %112, align 2, !range !4, !noundef !5
  %114 = trunc i8 %113 to i1
  br label %115

115:                                              ; preds = %110, %105
  %116 = phi i1 [ false, %105 ], [ %114, %110 ]
  %117 = select i1 %116, double 0.000000e+00, double 1.000000e+00
  store double %117, ptr %5, align 8
  store i32 1, ptr %13, align 4
  br label %143

118:                                              ; preds = %100, %95
  %119 = load ptr, ptr %8, align 8
  %120 = getelementptr inbounds nuw %struct.RangeBound, ptr %119, i32 0, i32 1
  %121 = load i8, ptr %120, align 8, !range !4, !noundef !5
  %122 = trunc i8 %121 to i1
  br i1 %122, label %142, label %123

123:                                              ; preds = %118
  %124 = load ptr, ptr %9, align 8
  %125 = getelementptr inbounds nuw %struct.RangeBound, ptr %124, i32 0, i32 1
  %126 = load i8, ptr %125, align 8, !range !4, !noundef !5
  %127 = trunc i8 %126 to i1
  br i1 %127, label %128, label %142

128:                                              ; preds = %123
  %129 = load ptr, ptr %7, align 8
  %130 = getelementptr inbounds nuw %struct.RangeBound, ptr %129, i32 0, i32 1
  %131 = load i8, ptr %130, align 8, !range !4, !noundef !5
  %132 = trunc i8 %131 to i1
  br i1 %132, label %133, label %139

133:                                              ; preds = %128
  %134 = load ptr, ptr %7, align 8
  %135 = getelementptr inbounds nuw %struct.RangeBound, ptr %134, i32 0, i32 3
  %136 = load i8, ptr %135, align 2, !range !4, !noundef !5
  %137 = trunc i8 %136 to i1
  %138 = xor i1 %137, true
  br label %139

139:                                              ; preds = %133, %128
  %140 = phi i1 [ false, %128 ], [ %138, %133 ]
  %141 = select i1 %140, double 1.000000e+00, double 0.000000e+00
  store double %141, ptr %5, align 8
  store i32 1, ptr %13, align 4
  br label %143

142:                                              ; preds = %123, %118
  store double 5.000000e-01, ptr %5, align 8
  store i32 1, ptr %13, align 4
  br label %143

143:                                              ; preds = %142, %139, %115, %94
  call void @llvm.lifetime.end.p0(i64 8, ptr %11) #7
  call void @llvm.lifetime.end.p0(i64 1, ptr %10) #7
  %144 = load double, ptr %5, align 8
  ret double %144
}

; Function Attrs: nounwind uwtable
define internal i32 @rbound_bsearch(ptr noundef %0, ptr noundef %1, ptr noundef %2, i32 noundef %3, i1 noundef zeroext %4) #0 {
  %6 = alloca ptr, align 8
  %7 = alloca ptr, align 8
  %8 = alloca ptr, align 8
  %9 = alloca i32, align 4
  %10 = alloca i8, align 1
  %11 = alloca i32, align 4
  %12 = alloca i32, align 4
  %13 = alloca i32, align 4
  %14 = alloca i32, align 4
  store ptr %0, ptr %6, align 8
  store ptr %1, ptr %7, align 8
  store ptr %2, ptr %8, align 8
  store i32 %3, ptr %9, align 4
  %15 = zext i1 %4 to i8
  store i8 %15, ptr %10, align 1
  call void @llvm.lifetime.start.p0(i64 4, ptr %11) #7
  store i32 -1, ptr %11, align 4
  call void @llvm.lifetime.start.p0(i64 4, ptr %12) #7
  %16 = load i32, ptr %9, align 4
  %17 = sub i32 %16, 1
  store i32 %17, ptr %12, align 4
  call void @llvm.lifetime.start.p0(i64 4, ptr %13) #7
  call void @llvm.lifetime.start.p0(i64 4, ptr %14) #7
  br label %18

18:                                               ; preds = %48, %5
  %19 = load i32, ptr %11, align 4
  %20 = load i32, ptr %12, align 4
  %21 = icmp slt i32 %19, %20
  br i1 %21, label %22, label %49

22:                                               ; preds = %18
  %23 = load i32, ptr %11, align 4
  %24 = load i32, ptr %12, align 4
  %25 = add i32 %23, %24
  %26 = add i32 %25, 1
  %27 = sdiv i32 %26, 2
  store i32 %27, ptr %14, align 4
  %28 = load ptr, ptr %6, align 8
  %29 = load ptr, ptr %8, align 8
  %30 = load i32, ptr %14, align 4
  %31 = sext i32 %30 to i64
  %32 = getelementptr inbounds %struct.RangeBound, ptr %29, i64 %31
  %33 = load ptr, ptr %7, align 8
  %34 = call i32 @range_cmp_bounds(ptr noundef %28, ptr noundef %32, ptr noundef %33)
  store i32 %34, ptr %13, align 4
  %35 = load i32, ptr %13, align 4
  %36 = icmp slt i32 %35, 0
  br i1 %36, label %43, label %37

37:                                               ; preds = %22
  %38 = load i8, ptr %10, align 1, !range !4, !noundef !5
  %39 = trunc i8 %38 to i1
  br i1 %39, label %40, label %45

40:                                               ; preds = %37
  %41 = load i32, ptr %13, align 4
  %42 = icmp eq i32 %41, 0
  br i1 %42, label %43, label %45

43:                                               ; preds = %40, %22
  %44 = load i32, ptr %14, align 4
  store i32 %44, ptr %11, align 4
  br label %48

45:                                               ; preds = %40, %37
  %46 = load i32, ptr %14, align 4
  %47 = sub i32 %46, 1
  store i32 %47, ptr %12, align 4
  br label %48

48:                                               ; preds = %45, %43
  br label %18, !llvm.loop !10

49:                                               ; preds = %18
  %50 = load i32, ptr %11, align 4
  call void @llvm.lifetime.end.p0(i64 4, ptr %14) #7
  call void @llvm.lifetime.end.p0(i64 4, ptr %13) #7
  call void @llvm.lifetime.end.p0(i64 4, ptr %12) #7
  call void @llvm.lifetime.end.p0(i64 4, ptr %11) #7
  ret i32 %50
}

; Function Attrs: nounwind uwtable
define internal double @calc_hist_selectivity_scalar(ptr noundef %0, ptr noundef %1, ptr noundef %2, i32 noundef %3, i1 noundef zeroext %4) #0 {
  %6 = alloca ptr, align 8
  %7 = alloca ptr, align 8
  %8 = alloca ptr, align 8
  %9 = alloca i32, align 4
  %10 = alloca i8, align 1
  %11 = alloca double, align 8
  %12 = alloca i32, align 4
  store ptr %0, ptr %6, align 8
  store ptr %1, ptr %7, align 8
  store ptr %2, ptr %8, align 8
  store i32 %3, ptr %9, align 4
  %13 = zext i1 %4 to i8
  store i8 %13, ptr %10, align 1
  call void @llvm.lifetime.start.p0(i64 8, ptr %11) #7
  call void @llvm.lifetime.start.p0(i64 4, ptr %12) #7
  %14 = load ptr, ptr %6, align 8
  %15 = load ptr, ptr %7, align 8
  %16 = load ptr, ptr %8, align 8
  %17 = load i32, ptr %9, align 4
  %18 = load i8, ptr %10, align 1, !range !4, !noundef !5
  %19 = trunc i8 %18 to i1
  %20 = call i32 @rbound_bsearch(ptr noundef %14, ptr noundef %15, ptr noundef %16, i32 noundef %17, i1 noundef zeroext %19)
  store i32 %20, ptr %12, align 4
  %21 = load i32, ptr %12, align 4
  %22 = icmp sgt i32 %21, 0
  br i1 %22, label %23, label %25

23:                                               ; preds = %5
  %24 = load i32, ptr %12, align 4
  br label %26

25:                                               ; preds = %5
  br label %26

26:                                               ; preds = %25, %23
  %27 = phi i32 [ %24, %23 ], [ 0, %25 ]
  %28 = sitofp i32 %27 to double
  %29 = load i32, ptr %9, align 4
  %30 = sub i32 %29, 1
  %31 = sitofp i32 %30 to double
  %32 = fdiv double %28, %31
  store double %32, ptr %11, align 8
  %33 = load i32, ptr %12, align 4
  %34 = icmp sge i32 %33, 0
  br i1 %34, label %35, label %59

35:                                               ; preds = %26
  %36 = load i32, ptr %12, align 4
  %37 = load i32, ptr %9, align 4
  %38 = sub i32 %37, 1
  %39 = icmp slt i32 %36, %38
  br i1 %39, label %40, label %59

40:                                               ; preds = %35
  %41 = load ptr, ptr %6, align 8
  %42 = load ptr, ptr %7, align 8
  %43 = load ptr, ptr %8, align 8
  %44 = load i32, ptr %12, align 4
  %45 = sext i32 %44 to i64
  %46 = getelementptr inbounds %struct.RangeBound, ptr %43, i64 %45
  %47 = load ptr, ptr %8, align 8
  %48 = load i32, ptr %12, align 4
  %49 = add i32 %48, 1
  %50 = sext i32 %49 to i64
  %51 = getelementptr inbounds %struct.RangeBound, ptr %47, i64 %50
  %52 = call double @get_position(ptr noundef %41, ptr noundef %42, ptr noundef %46, ptr noundef %51)
  %53 = load i32, ptr %9, align 4
  %54 = sub i32 %53, 1
  %55 = sitofp i32 %54 to double
  %56 = fdiv double %52, %55
  %57 = load double, ptr %11, align 8
  %58 = fadd double %57, %56
  store double %58, ptr %11, align 8
  br label %59

59:                                               ; preds = %40, %35, %26
  %60 = load double, ptr %11, align 8
  call void @llvm.lifetime.end.p0(i64 4, ptr %12) #7
  call void @llvm.lifetime.end.p0(i64 8, ptr %11) #7
  ret double %60
}